target datalayout = "e-m:e-p270:32:32-p271:32:32-p272:64:64-i64:64-i128:128-f80:128-n8:16:32:64-S128"
target triple = "x86_64-pc-linux-gnu"

%struct._zval_struct = type { %union._zend_value, %union.anon, %union.anon.2 }
%union._zend_value = type { i64 }
%union.anon = type { i32 }
%union.anon.2 = type { i32 }
%struct._zend_refcounted_h = type { i32, %union.anon.4 }
%union.anon.4 = type { i32 }
%struct._zend_execute_data = type { ptr, ptr, ptr, ptr, %struct._zval_struct, ptr, ptr, ptr, ptr }
%struct._zend_string = type { %struct._zend_refcounted_h, i64, i64, [1 x i8] }

; Function Attrs: nounwind uwtable
define hidden void @zif_strval(ptr noundef %0, ptr noundef %1) #0 {
  %3 = alloca ptr, align 8
  %4 = alloca i32, align 4
  %5 = alloca ptr, align 8
  %6 = alloca ptr, align 8
  %7 = alloca ptr, align 8
  %8 = alloca i32, align 4
  %9 = alloca ptr, align 8
  %10 = alloca ptr, align 8
  %11 = alloca ptr, align 8
  %12 = alloca i8, align 1
  %13 = alloca ptr, align 8
  %14 = alloca ptr, align 8
  %15 = alloca ptr, align 8
  %16 = alloca i32, align 4
  %17 = alloca i32, align 4
  %18 = alloca i32, align 4
  %19 = alloca i32, align 4
  %20 = alloca i32, align 4
  %21 = alloca ptr, align 8
  %22 = alloca ptr, align 8
  %23 = alloca i32, align 4
  %24 = alloca ptr, align 8
  %25 = alloca i8, align 1
  %26 = alloca i8, align 1
  %27 = alloca i32, align 4
  %28 = alloca ptr, align 8
  %29 = alloca ptr, align 8
  store ptr %0, ptr %13, align 8
  store ptr %1, ptr %14, align 8
  br label %30

30:                                               ; preds = %2
  store i32 0, ptr %16, align 4
  store i32 1, ptr %17, align 4
  store i32 1, ptr %18, align 4
  %31 = load ptr, ptr %13, align 8
  %32 = getelementptr inbounds %struct._zend_execute_data, ptr %31, i32 0, i32 4
  %33 = getelementptr inbounds %struct._zval_struct, ptr %32, i32 0, i32 2
  %34 = load i32, ptr %33, align 4
  store i32 %34, ptr %19, align 4
  store i32 0, ptr %20, align 4
  store ptr null, ptr %22, align 8
  store i32 0, ptr %23, align 4
  store ptr null, ptr %24, align 8
  store i8 0, ptr %25, align 1
  store i8 0, ptr %26, align 1
  store i32 0, ptr %27, align 4
  br label %35

35:                                               ; preds = %30
  %36 = load i32, ptr %19, align 4
  %37 = load i32, ptr %17, align 4
  %38 = icmp ult i32 %36, %37
  %39 = xor i1 %38, true
  %40 = xor i1 %39, true
  %41 = zext i1 %40 to i32
  %42 = sext i32 %41 to i64
  %43 = icmp ne i64 %42, 0
  br i1 %43, label %53, label %44

44:                                               ; preds = %35
  %45 = load i32, ptr %19, align 4
  %46 = load i32, ptr %18, align 4
  %47 = icmp ugt i32 %45, %46
  %48 = xor i1 %47, true
  %49 = xor i1 %48, true
  %50 = zext i1 %49 to i32
  %51 = sext i32 %50 to i64
  %52 = icmp ne i64 %51, 0
  br i1 %52, label %53, label %56

53:                                               ; preds = %44, %35
  %54 = load i32, ptr %17, align 4
  %55 = load i32, ptr %18, align 4
  call void @zend_wrong_parameters_count_error(i32 noundef %54, i32 noundef %55)
  store i32 1, ptr %27, align 4
  br label %122

56:                                               ; preds = %44
  %57 = load ptr, ptr %13, align 8
  %58 = getelementptr inbounds %struct._zval_struct, ptr %57, i64 4
  store ptr %58, ptr %21, align 8
  %59 = load i32, ptr %20, align 4
  %60 = add i32 %59, 1
  store i32 %60, ptr %20, align 4
  %61 = load i32, ptr %20, align 4
  %62 = load i32, ptr %17, align 4
  %63 = icmp ule i32 %61, %62
  br i1 %63, label %69, label %64

64:                                               ; preds = %56
  %65 = load i8, ptr %26, align 1
  %66 = trunc i8 %65 to i1
  %67 = zext i1 %66 to i32
  %68 = icmp eq i32 %67, 1
  br label %69

69:                                               ; preds = %64, %56
  %70 = phi i1 [ true, %56 ], [ %68, %64 ]
  call void @llvm.assume(i1 %70)
  %71 = load i32, ptr %20, align 4
  %72 = load i32, ptr %17, align 4
  %73 = icmp ugt i32 %71, %72
  br i1 %73, label %79, label %74

74:                                               ; preds = %69
  %75 = load i8, ptr %26, align 1
  %76 = trunc i8 %75 to i1
  %77 = zext i1 %76 to i32
  %78 = icmp eq i32 %77, 0
  br label %79

79:                                               ; preds = %74, %69
  %80 = phi i1 [ true, %69 ], [ %78, %74 ]
  call void @llvm.assume(i1 %80)
  %81 = load i8, ptr %26, align 1
  %82 = trunc i8 %81 to i1
  br i1 %82, label %83, label %94

83:                                               ; preds = %79
  %84 = load i32, ptr %20, align 4
  %85 = load i32, ptr %19, align 4
  %86 = icmp ugt i32 %84, %85
  %87 = xor i1 %86, true
  %88 = xor i1 %87, true
  %89 = zext i1 %88 to i32
  %90 = sext i32 %89 to i64
  %91 = icmp ne i64 %90, 0
  br i1 %91, label %92, label %93

92:                                               ; preds = %83
  br label %122

93:                                               ; preds = %83
  br label %94

94:                                               ; preds = %93, %79
  %95 = load ptr, ptr %21, align 8
  %96 = getelementptr inbounds %struct._zval_struct, ptr %95, i32 1
  store ptr %96, ptr %21, align 8
  %97 = load ptr, ptr %21, align 8
  store ptr %97, ptr %22, align 8
  %98 = load ptr, ptr %22, align 8
  store ptr %98, ptr %10, align 8
  store ptr %15, ptr %11, align 8
  store i8 0, ptr %12, align 1
  %99 = load i8, ptr %12, align 1
  %100 = trunc i8 %99 to i1
  br i1 %100, label %101, label %109

101:                                              ; preds = %94
  %102 = load ptr, ptr %10, align 8
  store ptr %102, ptr %9, align 8
  %103 = load ptr, ptr %9, align 8
  %104 = getelementptr inbounds %struct._zval_struct, ptr %103, i32 0, i32 1
  %105 = load i8, ptr %104, align 8
  %106 = zext i8 %105 to i32
  %107 = icmp eq i32 %106, 1
  br i1 %107, label %108, label %109

108:                                              ; preds = %101
  br label %111

109:                                              ; preds = %101, %94
  %110 = load ptr, ptr %10, align 8
  br label %111

111:                                              ; preds = %109, %108
  %112 = phi ptr [ null, %108 ], [ %110, %109 ]
  %113 = load ptr, ptr %11, align 8
  store ptr %112, ptr %113, align 8
  %114 = load i32, ptr %20, align 4
  %115 = load i32, ptr %18, align 4
  %116 = icmp eq i32 %114, %115
  br i1 %116, label %120, label %117

117:                                              ; preds = %111
  %118 = load i32, ptr %18, align 4
  %119 = icmp eq i32 %118, -1
  br label %120

120:                                              ; preds = %117, %111
  %121 = phi i1 [ true, %111 ], [ %119, %117 ]
  call void @llvm.assume(i1 %121)
  br label %122

122:                                              ; preds = %120, %92, %53
  %123 = load i32, ptr %27, align 4
  %124 = icmp ne i32 %123, 0
  %125 = xor i1 %124, true
  %126 = xor i1 %125, true
  %127 = zext i1 %126 to i32
  %128 = sext i32 %127 to i64
  %129 = icmp ne i64 %128, 0
  br i1 %129, label %130, label %136

130:                                              ; preds = %122
  %131 = load i32, ptr %27, align 4
  %132 = load i32, ptr %20, align 4
  %133 = load ptr, ptr %24, align 8
  %134 = load i32, ptr %23, align 4
  %135 = load ptr, ptr %22, align 8
  call void @zend_wrong_parameter_error(i32 noundef %131, i32 noundef %132, ptr noundef %133, i32 noundef %134, ptr noundef %135)
  br label %183

136:                                              ; preds = %122
  br label %137

137:                                              ; preds = %136
  br label %138

138:                                              ; preds = %137
  %139 = load ptr, ptr %14, align 8
  store ptr %139, ptr %28, align 8
  %140 = load ptr, ptr %15, align 8
  store ptr %140, ptr %7, align 8
  %141 = load ptr, ptr %7, align 8
  store ptr %141, ptr %6, align 8
  %142 = load ptr, ptr %6, align 8
  %143 = getelementptr inbounds %struct._zval_struct, ptr %142, i32 0, i32 1
  %144 = load i8, ptr %143, align 8
  %145 = zext i8 %144 to i32
  %146 = icmp eq i32 %145, 6
  br i1 %146, label %147, label %164

147:                                              ; preds = %138
  %148 = load ptr, ptr %7, align 8
  %149 = load ptr, ptr %148, align 8
  store ptr %149, ptr %5, align 8
  %150 = load ptr, ptr %5, align 8
  %151 = getelementptr inbounds %struct._zend_refcounted_h, ptr %150, i32 0, i32 1
  %152 = load i32, ptr %151, align 4
  store i32 %152, ptr %4, align 4
  %153 = load i32, ptr %4, align 4
  %154 = and i32 %153, 1008
  %155 = and i32 %154, 64
  %156 = icmp ne i32 %155, 0
  br i1 %156, label %162, label %157

157:                                              ; preds = %147
  %158 = load ptr, ptr %5, align 8
  store ptr %158, ptr %3, align 8
  %159 = load ptr, ptr %3, align 8
  %160 = load i32, ptr %159, align 4
  %161 = add i32 %160, 1
  store i32 %161, ptr %159, align 4
  br label %162

162:                                              ; preds = %157, %147
  %163 = load ptr, ptr %5, align 8
  br label %167

164:                                              ; preds = %138
  %165 = load ptr, ptr %7, align 8
  %166 = call ptr @zval_get_string_func(ptr noundef %165) #11
  br label %167

167:                                              ; preds = %164, %162
  %168 = phi ptr [ %163, %162 ], [ %166, %164 ]
  store ptr %168, ptr %29, align 8
  %169 = load ptr, ptr %29, align 8
  %170 = load ptr, ptr %28, align 8
  %171 = getelementptr inbounds %struct._zval_struct, ptr %170, i32 0, i32 0
  store ptr %169, ptr %171, align 8
  %172 = load ptr, ptr %29, align 8
  %173 = getelementptr inbounds %struct._zend_string, ptr %172, i32 0, i32 0
  %174 = getelementptr inbounds %struct._zend_refcounted_h, ptr %173, i32 0, i32 1
  %175 = load i32, ptr %174, align 4
  store i32 %175, ptr %8, align 4
  %176 = load i32, ptr %8, align 4
  %177 = and i32 %176, 1008
  %178 = and i32 %177, 64
  %179 = icmp ne i32 %178, 0
  %180 = select i1 %179, i32 6, i32 262
  %181 = load ptr, ptr %28, align 8
  %182 = getelementptr inbounds %struct._zval_struct, ptr %181, i32 0, i32 1
  store i32 %180, ptr %182, align 8
  br label %183

183:                                              ; preds = %167, %130
  ret void
}