; Function Attrs: nounwind uwtable
define hidden void @zif_strval(ptr noundef %0, ptr nocapture noundef writeonly %1) local_unnamed_addr #0 {
  %3 = getelementptr inbounds i8, ptr %0, i64 44
  %4 = load i32, ptr %3, align 4
  %cond = icmp eq i32 %4, 1
  br i1 %cond, label %6, label %5

5:                                                ; preds = %2
  tail call void @zend_wrong_parameters_count_error(i32 noundef 1, i32 noundef 1) #8
  tail call void @zend_wrong_parameter_error(i32 noundef 1, i32 noundef 0, ptr noundef null, i32 noundef 0, ptr noundef null) #8
  br label %28

6:                                                ; preds = %2
  %7 = getelementptr inbounds i8, ptr %0, i64 80
  %8 = getelementptr inbounds i8, ptr %0, i64 88
  %9 = load i8, ptr %8, align 8
  %10 = icmp eq i8 %9, 6
  br i1 %10, label %11, label %19

11:                                               ; preds = %6
  %12 = load ptr, ptr %7, align 8
  %13 = getelementptr inbounds i8, ptr %12, i64 4
  %14 = load i32, ptr %13, align 4
  %15 = and i32 %14, 64
  %.not54 = icmp eq i32 %15, 0
  br i1 %.not54, label %16, label %21

16:                                               ; preds = %11
  %17 = load i32, ptr %12, align 4
  %18 = add i32 %17, 1
  store i32 %18, ptr %12, align 4
  br label %21

19:                                               ; preds = %6
  %20 = tail call ptr @zval_get_string_func(ptr noundef nonnull %7) #8
  br label %21

21:                                               ; preds = %11, %16, %19
  %22 = phi ptr [ %20, %19 ], [ %12, %16 ], [ %12, %11 ]
  store ptr %22, ptr %1, align 8
  %23 = getelementptr inbounds i8, ptr %22, i64 4
  %24 = load i32, ptr %23, align 4
  %25 = and i32 %24, 64
  %.not55 = icmp eq i32 %25, 0
  %26 = select i1 %.not55, i32 262, i32 6
  %27 = getelementptr inbounds i8, ptr %1, i64 8
  store i32 %26, ptr %27, align 8
  br label %28

28:                                               ; preds = %21, %5
  ret void
}